target datalayout = "e-m:e-p270:32:32-p271:32:32-p272:64:64-i64:64-i128:128-f80:128-n8:16:32:64-S128"
target triple = "x86_64-pc-linux-gnu"

@.str = private unnamed_addr constant [10 x i8] c"%s%s%s:%s\00", align 1
@.str.1 = private unnamed_addr constant [2 x i8] c"[\00", align 1
@.str.2 = private unnamed_addr constant [1 x i8] zeroinitializer, align 1
@.str.3 = private unnamed_addr constant [2 x i8] c"]\00", align 1

; Function Attrs: nounwind uwtable
define dso_local ptr @make_ip(ptr noundef %0, ptr noundef %1) #0 {
  %3 = alloca ptr, align 8
  %4 = alloca ptr, align 8
  %5 = alloca ptr, align 8
  %6 = alloca ptr, align 8
  %7 = alloca i64, align 8
  %8 = alloca i32, align 4
  store ptr %0, ptr %4, align 8
  store ptr %1, ptr %5, align 8
  %9 = load ptr, ptr %4, align 8
  %10 = icmp ne ptr %9, null
  br i1 %10, label %11, label %14

11:                                               ; preds = %2
  %12 = load ptr, ptr %5, align 8
  %13 = icmp ne ptr %12, null
  br i1 %13, label %15, label %14

14:                                               ; preds = %11, %2
  store ptr null, ptr %3, align 8
  br label %49

15:                                               ; preds = %11
  %16 = load ptr, ptr %4, align 8
  %17 = call i64 @strlen(ptr noundef %16) #14
  %18 = load ptr, ptr %5, align 8
  %19 = call i64 @strlen(ptr noundef %18) #14
  %20 = add i64 %17, %19
  store i64 %20, ptr %7, align 8
  %21 = load ptr, ptr %4, align 8
  %22 = call ptr @strchr(ptr noundef %21, i32 noundef 58) #14
  %23 = icmp ne ptr %22, null
  %24 = zext i1 %23 to i32
  store i32 %24, ptr %8, align 4
  %25 = load i32, ptr %8, align 4
  %26 = icmp ne i32 %25, 0
  %27 = select i1 %26, i32 4, i32 3
  %28 = sext i32 %27 to i64
  %29 = load i64, ptr %7, align 8
  %30 = add i64 %29, %28
  store i64 %30, ptr %7, align 8
  %31 = load i64, ptr %7, align 8
  %32 = call noalias ptr @calloc(i64 noundef 1, i64 noundef %31) #15
  store ptr %32, ptr %6, align 8
  %33 = load ptr, ptr %6, align 8
  %34 = icmp ne ptr %33, null
  br i1 %34, label %36, label %35

35:                                               ; preds = %15
  store ptr null, ptr %3, align 8
  br label %49

36:                                               ; preds = %15
  %37 = load ptr, ptr %6, align 8
  %38 = load i64, ptr %7, align 8
  %39 = load i32, ptr %8, align 4
  %40 = icmp ne i32 %39, 0
  %41 = select i1 %40, ptr @.str.1, ptr @.str.2
  %42 = load ptr, ptr %4, align 8
  %43 = load i32, ptr %8, align 4
  %44 = icmp ne i32 %43, 0
  %45 = select i1 %44, ptr @.str.3, ptr @.str.2
  %46 = load ptr, ptr %5, align 8
  %47 = call i32 (ptr, i64, ptr, ...) @snprintf(ptr noundef %37, i64 noundef %38, ptr noundef @.str, ptr noundef %41, ptr noundef %42, ptr noundef %45, ptr noundef %46) #13
  %48 = load ptr, ptr %6, align 8
  store ptr %48, ptr %3, align 8
  br label %49

49:                                               ; preds = %36, %35, %14
  %50 = load ptr, ptr %3, align 8
  ret ptr %50
}