; Function Attrs: nofree nounwind uwtable
define dso_local noalias noundef ptr @make_ip(ptr noundef %0, ptr noundef %1) local_unnamed_addr #4 {
  %3 = icmp ne ptr %0, null
  %4 = icmp ne ptr %1, null
  %or.cond = and i1 %3, %4
  br i1 %or.cond, label %5, label %17

5:                                                ; preds = %2
  %6 = tail call i64 @strlen(ptr noundef nonnull dereferenceable(1) %0) #26
  %7 = tail call i64 @strlen(ptr noundef nonnull dereferenceable(1) %1) #26
  %8 = add i64 %7, %6
  %9 = tail call ptr @strchr(ptr noundef nonnull dereferenceable(1) %0, i32 noundef 58) #26
  %.not = icmp eq ptr %9, null
  %10 = select i1 %.not, i64 3, i64 4
  %11 = add i64 %8, %10
  %12 = tail call noalias ptr @calloc(i64 noundef 1, i64 noundef %11) #27
  %.not20 = icmp eq ptr %12, null
  br i1 %.not20, label %17, label %13

13:                                               ; preds = %5
  %14 = select i1 %.not, ptr @.str.2, ptr @.str.1
  %15 = select i1 %.not, ptr @.str.2, ptr @.str.3
  %16 = tail call i32 (ptr, i64, ptr, ...) @snprintf(ptr noundef nonnull %12, i64 noundef %11, ptr noundef nonnull @.str, ptr noundef nonnull %14, ptr noundef nonnull %0, ptr noundef nonnull %15, ptr noundef nonnull %1) #25
  br label %17

17:                                               ; preds = %5, %2, %13
  %.0 = phi ptr [ %12, %13 ], [ null, %2 ], [ null, %5 ]
  ret ptr %.0
}